(lp0
(iutils.SerializableStateObservation
SerializableStateObservation
p1
(dp2
S'avatarPosition'
p3
(lp4
F10.0
aF10.0
asS'avatarResources'
p5
(dp6
sS'movablePositions'
p7
(lp8
sS'avatarLastAction'
p9
VACTION_NIL
p10
sS'actions'
p11
(iutils.Types
ACTIONS
p12
(dp13
bsS'isGameOver'
p14
I00
sS'avatarLimitHealthPoints'
p15
I1000
sS'worldDimension'
p16
(lp17
F130.0
aF90.0
asVobservationGridMaxCol
p18
I1
sS'availableActions'
p19
(lp20
VACTION_USE
p21
aVACTION_LEFT
p22
aVACTION_RIGHT
p23
aVACTION_DOWN
p24
aVACTION_UP
p25
asS'resourcesPositions'
p26
(lp27
sS'isValidation'
p28
I00
sS'immovablePositionsMaxRow'
p29
I48
sS'blockSize'
p30
I10
sS'immovablePositions'
p31
(lp32
(lp33
(iutils.SerializableStateObservation
Observation
p34
(dp35
S'category'
p36
I4
sS'itype'
p37
I0
sS'reference'
p38
(iutils.SerializableStateObservation
Vector2d
p39
(dp40
S'y'
p41
F-1.0
sS'x'
p42
F-1.0
sbsS'obsID'
p43
I0
sS'position'
p44
(iutils.SerializableStateObservation
Vector2d
p45
(dp46
g41
F0.0
sg42
F0.0
sbsS'sqDist'
p47
F2.0
sba(iutils.SerializableStateObservation
Observation
p48
(dp49
g36
I4
sg37
I0
sg38
(iutils.SerializableStateObservation
Vector2d
p50
(dp51
g41
F-1.0
sg42
F-1.0
sbsg43
I1
sg44
(iutils.SerializableStateObservation
Vector2d
p52
(dp53
g41
F0.0
sg42
F10.0
sbsg47
F122.0
sba(iutils.SerializableStateObservation
Observation
p54
(dp55
g36
I4
sg37
I0
sg38
(iutils.SerializableStateObservation
Vector2d
p56
(dp57
g41
F-1.0
sg42
F-1.0
sbsg43
I2
sg44
(iutils.SerializableStateObservation
Vector2d
p58
(dp59
g41
F0.0
sg42
F20.0
sbsg47
F442.0
sba(iutils.SerializableStateObservation
Observation
p60
(dp61
g36
I4
sg37
I0
sg38
(iutils.SerializableStateObservation
Vector2d
p62
(dp63
g41
F-1.0
sg42
F-1.0
sbsg43
I3
sg44
(iutils.SerializableStateObservation
Vector2d
p64
(dp65
g41
F0.0
sg42
F30.0
sbsg47
F962.0
sba(iutils.SerializableStateObservation
Observation
p66
(dp67
g36
I4
sg37
I0
sg38
(iutils.SerializableStateObservation
Vector2d
p68
(dp69
g41
F-1.0
sg42
F-1.0
sbsg43
I4
sg44
(iutils.SerializableStateObservation
Vector2d
p70
(dp71
g41
F0.0
sg42
F40.0
sbsg47
F1682.0
sba(iutils.SerializableStateObservation
Observation
p72
(dp73
g36
I4
sg37
I0
sg38
(iutils.SerializableStateObservation
Vector2d
p74
(dp75
g41
F-1.0
sg42
F-1.0
sbsg43
I5
sg44
(iutils.SerializableStateObservation
Vector2d
p76
(dp77
g41
F0.0
sg42
F50.0
sbsg47
F2602.0
sba(iutils.SerializableStateObservation
Observation
p78
(dp79
g36
I4
sg37
I0
sg38
(iutils.SerializableStateObservation
Vector2d
p80
(dp81
g41
F-1.0
sg42
F-1.0
sbsg43
I6
sg44
(iutils.SerializableStateObservation
Vector2d
p82
(dp83
g41
F0.0
sg42
F60.0
sbsg47
F3722.0
sba(iutils.SerializableStateObservation
Observation
p84
(dp85
g36
I4
sg37
I0
sg38
(iutils.SerializableStateObservation
Vector2d
p86
(dp87
g41
F-1.0
sg42
F-1.0
sbsg43
I7
sg44
(iutils.SerializableStateObservation
Vector2d
p88
(dp89
g41
F0.0
sg42
F70.0
sbsg47
F5042.0
sba(iutils.SerializableStateObservation
Observation
p90
(dp91
g36
I4
sg37
I0
sg38
(iutils.SerializableStateObservation
Vector2d
p92
(dp93
g41
F-1.0
sg42
F-1.0
sbsg43
I8
sg44
(iutils.SerializableStateObservation
Vector2d
p94
(dp95
g41
F0.0
sg42
F80.0
sbsg47
F6562.0
sba(iutils.SerializableStateObservation
Observation
p96
(dp97
g36
I4
sg37
I0
sg38
(iutils.SerializableStateObservation
Vector2d
p98
(dp99
g41
F-1.0
sg42
F-1.0
sbsg43
I9
sg44
(iutils.SerializableStateObservation
Vector2d
p100
(dp101
g41
F0.0
sg42
F90.0
sbsg47
F8282.0
sba(iutils.SerializableStateObservation
Observation
p102
(dp103
g36
I4
sg37
I0
sg38
(iutils.SerializableStateObservation
Vector2d
p104
(dp105
g41
F-1.0
sg42
F-1.0
sbsg43
I10
sg44
(iutils.SerializableStateObservation
Vector2d
p106
(dp107
g41
F0.0
sg42
F100.0
sbsg47
F10202.0
sba(iutils.SerializableStateObservation
Observation
p108
(dp109
g36
I4
sg37
I0
sg38
(iutils.SerializableStateObservation
Vector2d
p110
(dp111
g41
F-1.0
sg42
F-1.0
sbsg43
I11
sg44
(iutils.SerializableStateObservation
Vector2d
p112
(dp113
g41
F0.0
sg42
F110.0
sbsg47
F12322.0
sba(iutils.SerializableStateObservation
Observation
p114
(dp115
g36
I4
sg37
I0
sg38
(iutils.SerializableStateObservation
Vector2d
p116
(dp117
g41
F-1.0
sg42
F-1.0
sbsg43
I12
sg44
(iutils.SerializableStateObservation
Vector2d
p118
(dp119
g41
F0.0
sg42
F120.0
sbsg47
F14642.0
sba(iutils.SerializableStateObservation
Observation
p120
(dp121
g36
I4
sg37
I0
sg38
(iutils.SerializableStateObservation
Vector2d
p122
(dp123
g41
F-1.0
sg42
F-1.0
sbsg43
I13
sg44
(iutils.SerializableStateObservation
Vector2d
p124
(dp125
g41
F10.0
sg42
F0.0
sbsg47
F122.0
sba(iutils.SerializableStateObservation
Observation
p126
(dp127
g36
I4
sg37
I0
sg38
(iutils.SerializableStateObservation
Vector2d
p128
(dp129
g41
F-1.0
sg42
F-1.0
sbsg43
I26
sg44
(iutils.SerializableStateObservation
Vector2d
p130
(dp131
g41
F10.0
sg42
F120.0
sbsg47
F14762.0
sba(iutils.SerializableStateObservation
Observation
p132
(dp133
g36
I4
sg37
I0
sg38
(iutils.SerializableStateObservation
Vector2d
p134
(dp135
g41
F-1.0
sg42
F-1.0
sbsg43
I27
sg44
(iutils.SerializableStateObservation
Vector2d
p136
(dp137
g41
F20.0
sg42
F0.0
sbsg47
F442.0
sba(iutils.SerializableStateObservation
Observation
p138
(dp139
g36
I4
sg37
I0
sg38
(iutils.SerializableStateObservation
Vector2d
p140
(dp141
g41
F-1.0
sg42
F-1.0
sbsg43
I39
sg44
(iutils.SerializableStateObservation
Vector2d
p142
(dp143
g41
F20.0
sg42
F120.0
sbsg47
F15082.0
sba(iutils.SerializableStateObservation
Observation
p144
(dp145
g36
I4
sg37
I0
sg38
(iutils.SerializableStateObservation
Vector2d
p146
(dp147
g41
F-1.0
sg42
F-1.0
sbsg43
I40
sg44
(iutils.SerializableStateObservation
Vector2d
p148
(dp149
g41
F30.0
sg42
F0.0
sbsg47
F962.0
sba(iutils.SerializableStateObservation
Observation
p150
(dp151
g36
I4
sg37
I0
sg38
(iutils.SerializableStateObservation
Vector2d
p152
(dp153
g41
F-1.0
sg42
F-1.0
sbsg43
I53
sg44
(iutils.SerializableStateObservation
Vector2d
p154
(dp155
g41
F30.0
sg42
F120.0
sbsg47
F15602.0
sba(iutils.SerializableStateObservation
Observation
p156
(dp157
g36
I4
sg37
I0
sg38
(iutils.SerializableStateObservation
Vector2d
p158
(dp159
g41
F-1.0
sg42
F-1.0
sbsg43
I54
sg44
(iutils.SerializableStateObservation
Vector2d
p160
(dp161
g41
F40.0
sg42
F0.0
sbsg47
F1682.0
sba(iutils.SerializableStateObservation
Observation
p162
(dp163
g36
I4
sg37
I0
sg38
(iutils.SerializableStateObservation
Vector2d
p164
(dp165
g41
F-1.0
sg42
F-1.0
sbsg43
I55
sg44
(iutils.SerializableStateObservation
Vector2d
p166
(dp167
g41
F40.0
sg42
F10.0
sbsg47
F1802.0
sba(iutils.SerializableStateObservation
Observation
p168
(dp169
g36
I4
sg37
I0
sg38
(iutils.SerializableStateObservation
Vector2d
p170
(dp171
g41
F-1.0
sg42
F-1.0
sbsg43
I56
sg44
(iutils.SerializableStateObservation
Vector2d
p172
(dp173
g41
F40.0
sg42
F20.0
sbsg47
F2122.0
sba(iutils.SerializableStateObservation
Observation
p174
(dp175
g36
I4
sg37
I0
sg38
(iutils.SerializableStateObservation
Vector2d
p176
(dp177
g41
F-1.0
sg42
F-1.0
sbsg43
I58
sg44
(iutils.SerializableStateObservation
Vector2d
p178
(dp179
g41
F40.0
sg42
F40.0
sbsg47
F3362.0
sba(iutils.SerializableStateObservation
Observation
p180
(dp181
g36
I4
sg37
I0
sg38
(iutils.SerializableStateObservation
Vector2d
p182
(dp183
g41
F-1.0
sg42
F-1.0
sbsg43
I63
sg44
(iutils.SerializableStateObservation
Vector2d
p184
(dp185
g41
F40.0
sg42
F80.0
sbsg47
F8242.0
sba(iutils.SerializableStateObservation
Observation
p186
(dp187
g36
I4
sg37
I0
sg38
(iutils.SerializableStateObservation
Vector2d
p188
(dp189
g41
F-1.0
sg42
F-1.0
sbsg43
I64
sg44
(iutils.SerializableStateObservation
Vector2d
p190
(dp191
g41
F40.0
sg42
F90.0
sbsg47
F9962.0
sba(iutils.SerializableStateObservation
Observation
p192
(dp193
g36
I4
sg37
I0
sg38
(iutils.SerializableStateObservation
Vector2d
p194
(dp195
g41
F-1.0
sg42
F-1.0
sbsg43
I65
sg44
(iutils.SerializableStateObservation
Vector2d
p196
(dp197
g41
F40.0
sg42
F100.0
sbsg47
F11882.0
sba(iutils.SerializableStateObservation
Observation
p198
(dp199
g36
I4
sg37
I0
sg38
(iutils.SerializableStateObservation
Vector2d
p200
(dp201
g41
F-1.0
sg42
F-1.0
sbsg43
I66
sg44
(iutils.SerializableStateObservation
Vector2d
p202
(dp203
g41
F40.0
sg42
F110.0
sbsg47
F14002.0
sba(iutils.SerializableStateObservation
Observation
p204
(dp205
g36
I4
sg37
I0
sg38
(iutils.SerializableStateObservation
Vector2d
p206
(dp207
g41
F-1.0
sg42
F-1.0
sbsg43
I67
sg44
(iutils.SerializableStateObservation
Vector2d
p208
(dp209
g41
F40.0
sg42
F120.0
sbsg47
F16322.0
sba(iutils.SerializableStateObservation
Observation
p210
(dp211
g36
I4
sg37
I0
sg38
(iutils.SerializableStateObservation
Vector2d
p212
(dp213
g41
F-1.0
sg42
F-1.0
sbsg43
I68
sg44
(iutils.SerializableStateObservation
Vector2d
p214
(dp215
g41
F50.0
sg42
F0.0
sbsg47
F2602.0
sba(iutils.SerializableStateObservation
Observation
p216
(dp217
g36
I4
sg37
I0
sg38
(iutils.SerializableStateObservation
Vector2d
p218
(dp219
g41
F-1.0
sg42
F-1.0
sbsg43
I76
sg44
(iutils.SerializableStateObservation
Vector2d
p220
(dp221
g41
F50.0
sg42
F80.0
sbsg47
F9162.0
sba(iutils.SerializableStateObservation
Observation
p222
(dp223
g36
I4
sg37
I0
sg38
(iutils.SerializableStateObservation
Vector2d
p224
(dp225
g41
F-1.0
sg42
F-1.0
sbsg43
I81
sg44
(iutils.SerializableStateObservation
Vector2d
p226
(dp227
g41
F50.0
sg42
F120.0
sbsg47
F17242.0
sba(iutils.SerializableStateObservation
Observation
p228
(dp229
g36
I4
sg37
I0
sg38
(iutils.SerializableStateObservation
Vector2d
p230
(dp231
g41
F-1.0
sg42
F-1.0
sbsg43
I82
sg44
(iutils.SerializableStateObservation
Vector2d
p232
(dp233
g41
F60.0
sg42
F0.0
sbsg47
F3722.0
sba(iutils.SerializableStateObservation
Observation
p234
(dp235
g36
I4
sg37
I0
sg38
(iutils.SerializableStateObservation
Vector2d
p236
(dp237
g41
F-1.0
sg42
F-1.0
sbsg43
I95
sg44
(iutils.SerializableStateObservation
Vector2d
p238
(dp239
g41
F60.0
sg42
F120.0
sbsg47
F18362.0
sba(iutils.SerializableStateObservation
Observation
p240
(dp241
g36
I4
sg37
I0
sg38
(iutils.SerializableStateObservation
Vector2d
p242
(dp243
g41
F-1.0
sg42
F-1.0
sbsg43
I96
sg44
(iutils.SerializableStateObservation
Vector2d
p244
(dp245
g41
F70.0
sg42
F0.0
sbsg47
F5042.0
sba(iutils.SerializableStateObservation
Observation
p246
(dp247
g36
I4
sg37
I0
sg38
(iutils.SerializableStateObservation
Vector2d
p248
(dp249
g41
F-1.0
sg42
F-1.0
sbsg43
I109
sg44
(iutils.SerializableStateObservation
Vector2d
p250
(dp251
g41
F70.0
sg42
F120.0
sbsg47
F19682.0
sba(iutils.SerializableStateObservation
Observation
p252
(dp253
g36
I4
sg37
I0
sg38
(iutils.SerializableStateObservation
Vector2d
p254
(dp255
g41
F-1.0
sg42
F-1.0
sbsg43
I110
sg44
(iutils.SerializableStateObservation
Vector2d
p256
(dp257
g41
F80.0
sg42
F0.0
sbsg47
F6562.0
sba(iutils.SerializableStateObservation
Observation
p258
(dp259
g36
I4
sg37
I0
sg38
(iutils.SerializableStateObservation
Vector2d
p260
(dp261
g41
F-1.0
sg42
F-1.0
sbsg43
I111
sg44
(iutils.SerializableStateObservation
Vector2d
p262
(dp263
g41
F80.0
sg42
F10.0
sbsg47
F6682.0
sba(iutils.SerializableStateObservation
Observation
p264
(dp265
g36
I4
sg37
I0
sg38
(iutils.SerializableStateObservation
Vector2d
p266
(dp267
g41
F-1.0
sg42
F-1.0
sbsg43
I112
sg44
(iutils.SerializableStateObservation
Vector2d
p268
(dp269
g41
F80.0
sg42
F20.0
sbsg47
F7002.0
sba(iutils.SerializableStateObservation
Observation
p270
(dp271
g36
I4
sg37
I0
sg38
(iutils.SerializableStateObservation
Vector2d
p272
(dp273
g41
F-1.0
sg42
F-1.0
sbsg43
I113
sg44
(iutils.SerializableStateObservation
Vector2d
p274
(dp275
g41
F80.0
sg42
F30.0
sbsg47
F7522.0
sba(iutils.SerializableStateObservation
Observation
p276
(dp277
g36
I4
sg37
I0
sg38
(iutils.SerializableStateObservation
Vector2d
p278
(dp279
g41
F-1.0
sg42
F-1.0
sbsg43
I114
sg44
(iutils.SerializableStateObservation
Vector2d
p280
(dp281
g41
F80.0
sg42
F40.0
sbsg47
F8242.0
sba(iutils.SerializableStateObservation
Observation
p282
(dp283
g36
I4
sg37
I0
sg38
(iutils.SerializableStateObservation
Vector2d
p284
(dp285
g41
F-1.0
sg42
F-1.0
sbsg43
I115
sg44
(iutils.SerializableStateObservation
Vector2d
p286
(dp287
g41
F80.0
sg42
F50.0
sbsg47
F9162.0
sba(iutils.SerializableStateObservation
Observation
p288
(dp289
g36
I4
sg37
I0
sg38
(iutils.SerializableStateObservation
Vector2d
p290
(dp291
g41
F-1.0
sg42
F-1.0
sbsg43
I116
sg44
(iutils.SerializableStateObservation
Vector2d
p292
(dp293
g41
F80.0
sg42
F60.0
sbsg47
F10282.0
sba(iutils.SerializableStateObservation
Observation
p294
(dp295
g36
I4
sg37
I0
sg38
(iutils.SerializableStateObservation
Vector2d
p296
(dp297
g41
F-1.0
sg42
F-1.0
sbsg43
I117
sg44
(iutils.SerializableStateObservation
Vector2d
p298
(dp299
g41
F80.0
sg42
F70.0
sbsg47
F11602.0
sba(iutils.SerializableStateObservation
Observation
p300
(dp301
g36
I4
sg37
I0
sg38
(iutils.SerializableStateObservation
Vector2d
p302
(dp303
g41
F-1.0
sg42
F-1.0
sbsg43
I118
sg44
(iutils.SerializableStateObservation
Vector2d
p304
(dp305
g41
F80.0
sg42
F80.0
sbsg47
F13122.0
sba(iutils.SerializableStateObservation
Observation
p306
(dp307
g36
I4
sg37
I0
sg38
(iutils.SerializableStateObservation
Vector2d
p308
(dp309
g41
F-1.0
sg42
F-1.0
sbsg43
I119
sg44
(iutils.SerializableStateObservation
Vector2d
p310
(dp311
g41
F80.0
sg42
F90.0
sbsg47
F14842.0
sba(iutils.SerializableStateObservation
Observation
p312
(dp313
g36
I4
sg37
I0
sg38
(iutils.SerializableStateObservation
Vector2d
p314
(dp315
g41
F-1.0
sg42
F-1.0
sbsg43
I120
sg44
(iutils.SerializableStateObservation
Vector2d
p316
(dp317
g41
F80.0
sg42
F100.0
sbsg47
F16762.0
sba(iutils.SerializableStateObservation
Observation
p318
(dp319
g36
I4
sg37
I0
sg38
(iutils.SerializableStateObservation
Vector2d
p320
(dp321
g41
F-1.0
sg42
F-1.0
sbsg43
I121
sg44
(iutils.SerializableStateObservation
Vector2d
p322
(dp323
g41
F80.0
sg42
F110.0
sbsg47
F18882.0
sba(iutils.SerializableStateObservation
Observation
p324
(dp325
g36
I4
sg37
I0
sg38
(iutils.SerializableStateObservation
Vector2d
p326
(dp327
g41
F-1.0
sg42
F-1.0
sbsg43
I122
sg44
(iutils.SerializableStateObservation
Vector2d
p328
(dp329
g41
F80.0
sg42
F120.0
sbsg47
F21202.0
sbaa(lp330
(iutils.SerializableStateObservation
Observation
p331
(dp332
g36
I4
sg37
I4
sg38
(iutils.SerializableStateObservation
Vector2d
p333
(dp334
g41
F-1.0
sg42
F-1.0
sbsg43
I52
sg44
(iutils.SerializableStateObservation
Vector2d
p335
(dp336
g41
F30.0
sg42
F110.0
sbsg47
F13282.0
sbaNaNaNaNaNaNaNaNaNaNaNaNaNaNaNaNaNaNaNaNaNaNaNaNaNaNaNaNaNaNaNaNaNaNaNaNaNaNaNaNaNaNaNaNaNaNaNaa(lp337
(iutils.SerializableStateObservation
Observation
p338
(dp339
g36
I4
sg37
I11
sg38
(iutils.SerializableStateObservation
Vector2d
p340
(dp341
g41
F-1.0
sg42
F-1.0
sbsg43
I60
sg44
(iutils.SerializableStateObservation
Vector2d
p342
(dp343
g41
F40.0
sg42
F50.0
sbsg47
F4282.0
sba(iutils.SerializableStateObservation
Observation
p344
(dp345
g36
I4
sg37
I11
sg38
(iutils.SerializableStateObservation
Vector2d
p346
(dp347
g41
F-1.0
sg42
F-1.0
sbsg43
I85
sg44
(iutils.SerializableStateObservation
Vector2d
p348
(dp349
g41
F60.0
sg42
F20.0
sbsg47
F4162.0
sba(iutils.SerializableStateObservation
Observation
p350
(dp351
g36
I4
sg37
I11
sg38
(iutils.SerializableStateObservation
Vector2d
p352
(dp353
g41
F-1.0
sg42
F-1.0
sbsg43
I103
sg44
(iutils.SerializableStateObservation
Vector2d
p354
(dp355
g41
F70.0
sg42
F60.0
sbsg47
F8762.0
sbaNaNaNaNaNaNaNaNaNaNaNaNaNaNaNaNaNaNaNaNaNaNaNaNaNaNaNaNaNaNaNaNaNaNaNaNaNaNaNaNaNaNaNaNaNaasS'winner'
p356
(iutils.Types
WINNER
p357
(dp358
bsS'NPCPositionsMaxRow'
p359
I0
sS'avatarHealthPoints'
p360
I0
sS'fromAvatarSpritesPositions'
p361
(lp362
sS'imageArray'
p363
c__builtin__
bytearray
p364
(V
p365
S'latin-1'
p366
tp367
Rp368
sS'noOfPlayers'
p369
I1
sS'gameTick'
p370
I0
sVmovablePositionsNum
p371
I0
sVresourcesPositionsMaxRow
p372
I0
sS'isAvatarAlive'
p373
I01
sS'avatarType'
p374
I7
sS'avatarSpeed'
p375
F1.0
sS'phase'
p376
I2
sS'NPCPositions'
p377
(lp378
sS'NPCPositionsNum'
p379
I0
sS'portalsPositions'
p380
(lp381
(lp382
(iutils.SerializableStateObservation
Observation
p383
(dp384
g36
I2
sg37
I3
sg38
(iutils.SerializableStateObservation
Vector2d
p385
(dp386
g41
F-1.0
sg42
F-1.0
sbsg43
I79
sg44
(iutils.SerializableStateObservation
Vector2d
p387
(dp388
g41
F50.0
sg42
F100.0
sbsg47
F12802.0
sbaasS'gameScore'
p389
F0.0
sVobservationGridMaxRow
p390
I9
sVresourcesPositionsNum
p391
I0
sS'gameWinner'
p392
VNO_WINNER
p393
sVmovablePositionsMaxRow
p394
I0
sS'immovablePositionsNum'
p395
I3
sVportalsPositionsMaxRow
p396
I1
sS'avatarOrientation'
p397
(lp398
F1.0
aF0.0
asS'avatarMaxHealthPoints'
p399
I0
sS'observationGrid'
p400
(lp401
(lp402
(lp403
(iutils.SerializableStateObservation
Observation
p404
(dp405
g36
I4
sg37
I0
sg38
(iutils.SerializableStateObservation
Vector2d
p406
(dp407
g41
F-1.0
sg42
F-1.0
sbsg43
I0
sg44
(iutils.SerializableStateObservation
Vector2d
p408
(dp409
g41
F0.0
sg42
F0.0
sbsg47
F2.0
sbaa(lp410
(iutils.SerializableStateObservation
Observation
p411
(dp412
g36
I4
sg37
I0
sg38
(iutils.SerializableStateObservation
Vector2d
p413
(dp414
g41
F-1.0
sg42
F-1.0
sbsg43
I13
sg44
(iutils.SerializableStateObservation
Vector2d
p415
(dp416
g41
F10.0
sg42
F0.0
sbsg47
F122.0
sbaa(lp417
(iutils.SerializableStateObservation
Observation
p418
(dp419
g36
I4
sg37
I0
sg38
(iutils.SerializableStateObservation
Vector2d
p420
(dp421
g41
F-1.0
sg42
F-1.0
sbsg43
I27
sg44
(iutils.SerializableStateObservation
Vector2d
p422
(dp423
g41
F20.0
sg42
F0.0
sbsg47
F442.0
sbaa(lp424
(iutils.SerializableStateObservation
Observation
p425
(dp426
g36
I4
sg37
I0
sg38
(iutils.SerializableStateObservation
Vector2d
p427
(dp428
g41
F-1.0
sg42
F-1.0
sbsg43
I40
sg44
(iutils.SerializableStateObservation
Vector2d
p429
(dp430
g41
F30.0
sg42
F0.0
sbsg47
F962.0
sbaa(lp431
(iutils.SerializableStateObservation
Observation
p432
(dp433
g36
I4
sg37
I0
sg38
(iutils.SerializableStateObservation
Vector2d
p434
(dp435
g41
F-1.0
sg42
F-1.0
sbsg43
I54
sg44
(iutils.SerializableStateObservation
Vector2d
p436
(dp437
g41
F40.0
sg42
F0.0
sbsg47
F1682.0
sbaa(lp438
(iutils.SerializableStateObservation
Observation
p439
(dp440
g36
I4
sg37
I0
sg38
(iutils.SerializableStateObservation
Vector2d
p441
(dp442
g41
F-1.0
sg42
F-1.0
sbsg43
I68
sg44
(iutils.SerializableStateObservation
Vector2d
p443
(dp444
g41
F50.0
sg42
F0.0
sbsg47
F2602.0
sbaa(lp445
(iutils.SerializableStateObservation
Observation
p446
(dp447
g36
I4
sg37
I0
sg38
(iutils.SerializableStateObservation
Vector2d
p448
(dp449
g41
F-1.0
sg42
F-1.0
sbsg43
I82
sg44
(iutils.SerializableStateObservation
Vector2d
p450
(dp451
g41
F60.0
sg42
F0.0
sbsg47
F3722.0
sbaa(lp452
(iutils.SerializableStateObservation
Observation
p453
(dp454
g36
I4
sg37
I0
sg38
(iutils.SerializableStateObservation
Vector2d
p455
(dp456
g41
F-1.0
sg42
F-1.0
sbsg43
I96
sg44
(iutils.SerializableStateObservation
Vector2d
p457
(dp458
g41
F70.0
sg42
F0.0
sbsg47
F5042.0
sbaa(lp459
(iutils.SerializableStateObservation
Observation
p460
(dp461
g36
I4
sg37
I0
sg38
(iutils.SerializableStateObservation
Vector2d
p462
(dp463
g41
F-1.0
sg42
F-1.0
sbsg43
I110
sg44
(iutils.SerializableStateObservation
Vector2d
p464
(dp465
g41
F80.0
sg42
F0.0
sbsg47
F6562.0
sbaaa(lp466
(lp467
(iutils.SerializableStateObservation
Observation
p468
(dp469
g36
I4
sg37
I0
sg38
(iutils.SerializableStateObservation
Vector2d
p470
(dp471
g41
F-1.0
sg42
F-1.0
sbsg43
I1
sg44
(iutils.SerializableStateObservation
Vector2d
p472
(dp473
g41
F0.0
sg42
F10.0
sbsg47
F122.0
sbaa(lp474
(iutils.SerializableStateObservation
Observation
p475
(dp476
g36
I0
sg37
I7
sg38
(iutils.SerializableStateObservation
Vector2d
p477
(dp478
g41
F-1.0
sg42
F-1.0
sbsg43
I15
sg44
(iutils.SerializableStateObservation
Vector2d
p479
(dp480
g41
F10.0
sg42
F10.0
sbsg47
F242.0
sbaa(lp481
Naa(lp482
Naa(lp483
(iutils.SerializableStateObservation
Observation
p484
(dp485
g36
I4
sg37
I0
sg38
(iutils.SerializableStateObservation
Vector2d
p486
(dp487
g41
F-1.0
sg42
F-1.0
sbsg43
I55
sg44
(iutils.SerializableStateObservation
Vector2d
p488
(dp489
g41
F40.0
sg42
F10.0
sbsg47
F1802.0
sbaa(lp490
Naa(lp491
Naa(lp492
Naa(lp493
(iutils.SerializableStateObservation
Observation
p494
(dp495
g36
I4
sg37
I0
sg38
(iutils.SerializableStateObservation
Vector2d
p496
(dp497
g41
F-1.0
sg42
F-1.0
sbsg43
I111
sg44
(iutils.SerializableStateObservation
Vector2d
p498
(dp499
g41
F80.0
sg42
F10.0
sbsg47
F6682.0
sbaaa(lp500
(lp501
(iutils.SerializableStateObservation
Observation
p502
(dp503
g36
I4
sg37
I0
sg38
(iutils.SerializableStateObservation
Vector2d
p504
(dp505
g41
F-1.0
sg42
F-1.0
sbsg43
I2
sg44
(iutils.SerializableStateObservation
Vector2d
p506
(dp507
g41
F0.0
sg42
F20.0
sbsg47
F442.0
sbaa(lp508
Naa(lp509
Naa(lp510
Naa(lp511
(iutils.SerializableStateObservation
Observation
p512
(dp513
g36
I4
sg37
I0
sg38
(iutils.SerializableStateObservation
Vector2d
p514
(dp515
g41
F-1.0
sg42
F-1.0
sbsg43
I56
sg44
(iutils.SerializableStateObservation
Vector2d
p516
(dp517
g41
F40.0
sg42
F20.0
sbsg47
F2122.0
sbaa(lp518
Naa(lp519
(iutils.SerializableStateObservation
Observation
p520
(dp521
g36
I4
sg37
I11
sg38
(iutils.SerializableStateObservation
Vector2d
p522
(dp523
g41
F-1.0
sg42
F-1.0
sbsg43
I85
sg44
(iutils.SerializableStateObservation
Vector2d
p524
(dp525
g41
F60.0
sg42
F20.0
sbsg47
F4162.0
sbaa(lp526
Naa(lp527
(iutils.SerializableStateObservation
Observation
p528
(dp529
g36
I4
sg37
I0
sg38
(iutils.SerializableStateObservation
Vector2d
p530
(dp531
g41
F-1.0
sg42
F-1.0
sbsg43
I112
sg44
(iutils.SerializableStateObservation
Vector2d
p532
(dp533
g41
F80.0
sg42
F20.0
sbsg47
F7002.0
sbaaa(lp534
(lp535
(iutils.SerializableStateObservation
Observation
p536
(dp537
g36
I4
sg37
I0
sg38
(iutils.SerializableStateObservation
Vector2d
p538
(dp539
g41
F-1.0
sg42
F-1.0
sbsg43
I3
sg44
(iutils.SerializableStateObservation
Vector2d
p540
(dp541
g41
F0.0
sg42
F30.0
sbsg47
F962.0
sbaa(lp542
Naa(lp543
Naa(lp544
Naa(lp545
Naa(lp546
Naa(lp547
Naa(lp548
Naa(lp549
(iutils.SerializableStateObservation
Observation
p550
(dp551
g36
I4
sg37
I0
sg38
(iutils.SerializableStateObservation
Vector2d
p552
(dp553
g41
F-1.0
sg42
F-1.0
sbsg43
I113
sg44
(iutils.SerializableStateObservation
Vector2d
p554
(dp555
g41
F80.0
sg42
F30.0
sbsg47
F7522.0
sbaaa(lp556
(lp557
(iutils.SerializableStateObservation
Observation
p558
(dp559
g36
I4
sg37
I0
sg38
(iutils.SerializableStateObservation
Vector2d
p560
(dp561
g41
F-1.0
sg42
F-1.0
sbsg43
I4
sg44
(iutils.SerializableStateObservation
Vector2d
p562
(dp563
g41
F0.0
sg42
F40.0
sbsg47
F1682.0
sbaa(lp564
Naa(lp565
Naa(lp566
Naa(lp567
(iutils.SerializableStateObservation
Observation
p568
(dp569
g36
I4
sg37
I0
sg38
(iutils.SerializableStateObservation
Vector2d
p570
(dp571
g41
F-1.0
sg42
F-1.0
sbsg43
I58
sg44
(iutils.SerializableStateObservation
Vector2d
p572
(dp573
g41
F40.0
sg42
F40.0
sbsg47
F3362.0
sbaa(lp574
Naa(lp575
Naa(lp576
Naa(lp577
(iutils.SerializableStateObservation
Observation
p578
(dp579
g36
I4
sg37
I0
sg38
(iutils.SerializableStateObservation
Vector2d
p580
(dp581
g41
F-1.0
sg42
F-1.0
sbsg43
I114
sg44
(iutils.SerializableStateObservation
Vector2d
p582
(dp583
g41
F80.0
sg42
F40.0
sbsg47
F8242.0
sbaaa(lp584
(lp585
(iutils.SerializableStateObservation
Observation
p586
(dp587
g36
I4
sg37
I0
sg38
(iutils.SerializableStateObservation
Vector2d
p588
(dp589
g41
F-1.0
sg42
F-1.0
sbsg43
I5
sg44
(iutils.SerializableStateObservation
Vector2d
p590
(dp591
g41
F0.0
sg42
F50.0
sbsg47
F2602.0
sbaa(lp592
Naa(lp593
Naa(lp594
Naa(lp595
(iutils.SerializableStateObservation
Observation
p596
(dp597
g36
I4
sg37
I11
sg38
(iutils.SerializableStateObservation
Vector2d
p598
(dp599
g41
F-1.0
sg42
F-1.0
sbsg43
I60
sg44
(iutils.SerializableStateObservation
Vector2d
p600
(dp601
g41
F40.0
sg42
F50.0
sbsg47
F4282.0
sbaa(lp602
Naa(lp603
Naa(lp604
Naa(lp605
(iutils.SerializableStateObservation
Observation
p606
(dp607
g36
I4
sg37
I0
sg38
(iutils.SerializableStateObservation
Vector2d
p608
(dp609
g41
F-1.0
sg42
F-1.0
sbsg43
I115
sg44
(iutils.SerializableStateObservation
Vector2d
p610
(dp611
g41
F80.0
sg42
F50.0
sbsg47
F9162.0
sbaaa(lp612
(lp613
(iutils.SerializableStateObservation
Observation
p614
(dp615
g36
I4
sg37
I0
sg38
(iutils.SerializableStateObservation
Vector2d
p616
(dp617
g41
F-1.0
sg42
F-1.0
sbsg43
I6
sg44
(iutils.SerializableStateObservation
Vector2d
p618
(dp619
g41
F0.0
sg42
F60.0
sbsg47
F3722.0
sbaa(lp620
Naa(lp621
Naa(lp622
Naa(lp623
Naa(lp624
Naa(lp625
Naa(lp626
(iutils.SerializableStateObservation
Observation
p627
(dp628
g36
I4
sg37
I11
sg38
(iutils.SerializableStateObservation
Vector2d
p629
(dp630
g41
F-1.0
sg42
F-1.0
sbsg43
I103
sg44
(iutils.SerializableStateObservation
Vector2d
p631
(dp632
g41
F70.0
sg42
F60.0
sbsg47
F8762.0
sbaa(lp633
(iutils.SerializableStateObservation
Observation
p634
(dp635
g36
I4
sg37
I0
sg38
(iutils.SerializableStateObservation
Vector2d
p636
(dp637
g41
F-1.0
sg42
F-1.0
sbsg43
I116
sg44
(iutils.SerializableStateObservation
Vector2d
p638
(dp639
g41
F80.0
sg42
F60.0
sbsg47
F10282.0
sbaaa(lp640
(lp641
(iutils.SerializableStateObservation
Observation
p642
(dp643
g36
I4
sg37
I0
sg38
(iutils.SerializableStateObservation
Vector2d
p644
(dp645
g41
F-1.0
sg42
F-1.0
sbsg43
I7
sg44
(iutils.SerializableStateObservation
Vector2d
p646
(dp647
g41
F0.0
sg42
F70.0
sbsg47
F5042.0
sbaa(lp648
Naa(lp649
Naa(lp650
Naa(lp651
Naa(lp652
Naa(lp653
Naa(lp654
Naa(lp655
(iutils.SerializableStateObservation
Observation
p656
(dp657
g36
I4
sg37
I0
sg38
(iutils.SerializableStateObservation
Vector2d
p658
(dp659
g41
F-1.0
sg42
F-1.0
sbsg43
I117
sg44
(iutils.SerializableStateObservation
Vector2d
p660
(dp661
g41
F80.0
sg42
F70.0
sbsg47
F11602.0
sbaaa(lp662
(lp663
(iutils.SerializableStateObservation
Observation
p664
(dp665
g36
I4
sg37
I0
sg38
(iutils.SerializableStateObservation
Vector2d
p666
(dp667
g41
F-1.0
sg42
F-1.0
sbsg43
I8
sg44
(iutils.SerializableStateObservation
Vector2d
p668
(dp669
g41
F0.0
sg42
F80.0
sbsg47
F6562.0
sbaa(lp670
Naa(lp671
Naa(lp672
Naa(lp673
(iutils.SerializableStateObservation
Observation
p674
(dp675
g36
I4
sg37
I0
sg38
(iutils.SerializableStateObservation
Vector2d
p676
(dp677
g41
F-1.0
sg42
F-1.0
sbsg43
I63
sg44
(iutils.SerializableStateObservation
Vector2d
p678
(dp679
g41
F40.0
sg42
F80.0
sbsg47
F8242.0
sbaa(lp680
(iutils.SerializableStateObservation
Observation
p681
(dp682
g36
I4
sg37
I0
sg38
(iutils.SerializableStateObservation
Vector2d
p683
(dp684
g41
F-1.0
sg42
F-1.0
sbsg43
I76
sg44
(iutils.SerializableStateObservation
Vector2d
p685
(dp686
g41
F50.0
sg42
F80.0
sbsg47
F9162.0
sbaa(lp687
Naa(lp688
Naa(lp689
(iutils.SerializableStateObservation
Observation
p690
(dp691
g36
I4
sg37
I0
sg38
(iutils.SerializableStateObservation
Vector2d
p692
(dp693
g41
F-1.0
sg42
F-1.0
sbsg43
I118
sg44
(iutils.SerializableStateObservation
Vector2d
p694
(dp695
g41
F80.0
sg42
F80.0
sbsg47
F13122.0
sbaaa(lp696
(lp697
(iutils.SerializableStateObservation
Observation
p698
(dp699
g36
I4
sg37
I0
sg38
(iutils.SerializableStateObservation
Vector2d
p700
(dp701
g41
F-1.0
sg42
F-1.0
sbsg43
I9
sg44
(iutils.SerializableStateObservation
Vector2d
p702
(dp703
g41
F0.0
sg42
F90.0
sbsg47
F8282.0
sbaa(lp704
Naa(lp705
Naa(lp706
Naa(lp707
(iutils.SerializableStateObservation
Observation
p708
(dp709
g36
I4
sg37
I0
sg38
(iutils.SerializableStateObservation
Vector2d
p710
(dp711
g41
F-1.0
sg42
F-1.0
sbsg43
I64
sg44
(iutils.SerializableStateObservation
Vector2d
p712
(dp713
g41
F40.0
sg42
F90.0
sbsg47
F9962.0
sbaa(lp714
Naa(lp715
Naa(lp716
Naa(lp717
(iutils.SerializableStateObservation
Observation
p718
(dp719
g36
I4
sg37
I0
sg38
(iutils.SerializableStateObservation
Vector2d
p720
(dp721
g41
F-1.0
sg42
F-1.0
sbsg43
I119
sg44
(iutils.SerializableStateObservation
Vector2d
p722
(dp723
g41
F80.0
sg42
F90.0
sbsg47
F14842.0
sbaaa(lp724
(lp725
(iutils.SerializableStateObservation
Observation
p726
(dp727
g36
I4
sg37
I0
sg38
(iutils.SerializableStateObservation
Vector2d
p728
(dp729
g41
F-1.0
sg42
F-1.0
sbsg43
I10
sg44
(iutils.SerializableStateObservation
Vector2d
p730
(dp731
g41
F0.0
sg42
F100.0
sbsg47
F10202.0
sbaa(lp732
Naa(lp733
Naa(lp734
Naa(lp735
(iutils.SerializableStateObservation
Observation
p736
(dp737
g36
I4
sg37
I0
sg38
(iutils.SerializableStateObservation
Vector2d
p738
(dp739
g41
F-1.0
sg42
F-1.0
sbsg43
I65
sg44
(iutils.SerializableStateObservation
Vector2d
p740
(dp741
g41
F40.0
sg42
F100.0
sbsg47
F11882.0
sbaa(lp742
(iutils.SerializableStateObservation
Observation
p743
(dp744
g36
I2
sg37
I3
sg38
(iutils.SerializableStateObservation
Vector2d
p745
(dp746
g41
F-1.0
sg42
F-1.0
sbsg43
I79
sg44
(iutils.SerializableStateObservation
Vector2d
p747
(dp748
g41
F50.0
sg42
F100.0
sbsg47
F12802.0
sbaa(lp749
Naa(lp750
Naa(lp751
(iutils.SerializableStateObservation
Observation
p752
(dp753
g36
I4
sg37
I0
sg38
(iutils.SerializableStateObservation
Vector2d
p754
(dp755
g41
F-1.0
sg42
F-1.0
sbsg43
I120
sg44
(iutils.SerializableStateObservation
Vector2d
p756
(dp757
g41
F80.0
sg42
F100.0
sbsg47
F16762.0
sbaaa(lp758
(lp759
(iutils.SerializableStateObservation
Observation
p760
(dp761
g36
I4
sg37
I0
sg38
(iutils.SerializableStateObservation
Vector2d
p762
(dp763
g41
F-1.0
sg42
F-1.0
sbsg43
I11
sg44
(iutils.SerializableStateObservation
Vector2d
p764
(dp765
g41
F0.0
sg42
F110.0
sbsg47
F12322.0
sbaa(lp766
Naa(lp767
Naa(lp768
(iutils.SerializableStateObservation
Observation
p769
(dp770
g36
I4
sg37
I4
sg38
(iutils.SerializableStateObservation
Vector2d
p771
(dp772
g41
F-1.0
sg42
F-1.0
sbsg43
I52
sg44
(iutils.SerializableStateObservation
Vector2d
p773
(dp774
g41
F30.0
sg42
F110.0
sbsg47
F13282.0
sbaa(lp775
(iutils.SerializableStateObservation
Observation
p776
(dp777
g36
I4
sg37
I0
sg38
(iutils.SerializableStateObservation
Vector2d
p778
(dp779
g41
F-1.0
sg42
F-1.0
sbsg43
I66
sg44
(iutils.SerializableStateObservation
Vector2d
p780
(dp781
g41
F40.0
sg42
F110.0
sbsg47
F14002.0
sbaa(lp782
Naa(lp783
Naa(lp784
Naa(lp785
(iutils.SerializableStateObservation
Observation
p786
(dp787
g36
I4
sg37
I0
sg38
(iutils.SerializableStateObservation
Vector2d
p788
(dp789
g41
F-1.0
sg42
F-1.0
sbsg43
I121
sg44
(iutils.SerializableStateObservation
Vector2d
p790
(dp791
g41
F80.0
sg42
F110.0
sbsg47
F18882.0
sbaaa(lp792
(lp793
(iutils.SerializableStateObservation
Observation
p794
(dp795
g36
I4
sg37
I0
sg38
(iutils.SerializableStateObservation
Vector2d
p796
(dp797
g41
F-1.0
sg42
F-1.0
sbsg43
I12
sg44
(iutils.SerializableStateObservation
Vector2d
p798
(dp799
g41
F0.0
sg42
F120.0
sbsg47
F14642.0
sbaa(lp800
(iutils.SerializableStateObservation
Observation
p801
(dp802
g36
I4
sg37
I0
sg38
(iutils.SerializableStateObservation
Vector2d
p803
(dp804
g41
F-1.0
sg42
F-1.0
sbsg43
I26
sg44
(iutils.SerializableStateObservation
Vector2d
p805
(dp806
g41
F10.0
sg42
F120.0
sbsg47
F14762.0
sbaa(lp807
(iutils.SerializableStateObservation
Observation
p808
(dp809
g36
I4
sg37
I0
sg38
(iutils.SerializableStateObservation
Vector2d
p810
(dp811
g41
F-1.0
sg42
F-1.0
sbsg43
I39
sg44
(iutils.SerializableStateObservation
Vector2d
p812
(dp813
g41
F20.0
sg42
F120.0
sbsg47
F15082.0
sbaa(lp814
(iutils.SerializableStateObservation
Observation
p815
(dp816
g36
I4
sg37
I0
sg38
(iutils.SerializableStateObservation
Vector2d
p817
(dp818
g41
F-1.0
sg42
F-1.0
sbsg43
I53
sg44
(iutils.SerializableStateObservation
Vector2d
p819
(dp820
g41
F30.0
sg42
F120.0
sbsg47
F15602.0
sbaa(lp821
(iutils.SerializableStateObservation
Observation
p822
(dp823
g36
I4
sg37
I0
sg38
(iutils.SerializableStateObservation
Vector2d
p824
(dp825
g41
F-1.0
sg42
F-1.0
sbsg43
I67
sg44
(iutils.SerializableStateObservation
Vector2d
p826
(dp827
g41
F40.0
sg42
F120.0
sbsg47
F16322.0
sbaa(lp828
(iutils.SerializableStateObservation
Observation
p829
(dp830
g36
I4
sg37
I0
sg38
(iutils.SerializableStateObservation
Vector2d
p831
(dp832
g41
F-1.0
sg42
F-1.0
sbsg43
I81
sg44
(iutils.SerializableStateObservation
Vector2d
p833
(dp834
g41
F50.0
sg42
F120.0
sbsg47
F17242.0
sbaa(lp835
(iutils.SerializableStateObservation
Observation
p836
(dp837
g36
I4
sg37
I0
sg38
(iutils.SerializableStateObservation
Vector2d
p838
(dp839
g41
F-1.0
sg42
F-1.0
sbsg43
I95
sg44
(iutils.SerializableStateObservation
Vector2d
p840
(dp841
g41
F60.0
sg42
F120.0
sbsg47
F18362.0
sbaa(lp842
(iutils.SerializableStateObservation
Observation
p843
(dp844
g36
I4
sg37
I0
sg38
(iutils.SerializableStateObservation
Vector2d
p845
(dp846
g41
F-1.0
sg42
F-1.0
sbsg43
I109
sg44
(iutils.SerializableStateObservation
Vector2d
p847
(dp848
g41
F70.0
sg42
F120.0
sbsg47
F19682.0
sbaa(lp849
(iutils.SerializableStateObservation
Observation
p850
(dp851
g36
I4
sg37
I0
sg38
(iutils.SerializableStateObservation
Vector2d
p852
(dp853
g41
F-1.0
sg42
F-1.0
sbsg43
I122
sg44
(iutils.SerializableStateObservation
Vector2d
p854
(dp855
g41
F80.0
sg42
F120.0
sbsg47
F21202.0
sbaaasVfromAvatarSpritesPositionsNum
p856
I0
sVobservationGridNum
p857
I13
sVportalsPositionsNum
p858
I1
sVfromAvatarSpritesPositionsMaxRow
p859
I0
sba(lp860
g1
ag22
aa.