(iutils.SerializableStateObservation
SerializableStateObservation
p0
(dp1
S'avatarPosition'
p2
(lp3
F10.0
aF10.0
asS'avatarResources'
p4
(dp5
sS'movablePositions'
p6
(lp7
sS'avatarLastAction'
p8
VACTION_NIL
p9
sS'actions'
p10
(iutils.Types
ACTIONS
p11
(dp12
bsS'isGameOver'
p13
I00
sS'avatarLimitHealthPoints'
p14
I1000
sS'worldDimension'
p15
(lp16
F130.0
aF90.0
asVobservationGridMaxCol
p17
I1
sS'availableActions'
p18
(lp19
VACTION_USE
p20
aVACTION_LEFT
p21
aVACTION_RIGHT
p22
aVACTION_DOWN
p23
aVACTION_UP
p24
asS'resourcesPositions'
p25
(lp26
sS'isValidation'
p27
I00
sS'immovablePositionsMaxRow'
p28
I48
sS'blockSize'
p29
I10
sS'immovablePositions'
p30
(lp31
(lp32
(iutils.SerializableStateObservation
Observation
p33
(dp34
S'category'
p35
I4
sS'itype'
p36
I0
sS'reference'
p37
(iutils.SerializableStateObservation
Vector2d
p38
(dp39
S'y'
p40
F-1.0
sS'x'
p41
F-1.0
sbsS'obsID'
p42
I0
sS'position'
p43
(iutils.SerializableStateObservation
Vector2d
p44
(dp45
g40
F0.0
sg41
F0.0
sbsS'sqDist'
p46
F2.0
sba(iutils.SerializableStateObservation
Observation
p47
(dp48
g35
I4
sg36
I0
sg37
(iutils.SerializableStateObservation
Vector2d
p49
(dp50
g40
F-1.0
sg41
F-1.0
sbsg42
I1
sg43
(iutils.SerializableStateObservation
Vector2d
p51
(dp52
g40
F0.0
sg41
F10.0
sbsg46
F122.0
sba(iutils.SerializableStateObservation
Observation
p53
(dp54
g35
I4
sg36
I0
sg37
(iutils.SerializableStateObservation
Vector2d
p55
(dp56
g40
F-1.0
sg41
F-1.0
sbsg42
I2
sg43
(iutils.SerializableStateObservation
Vector2d
p57
(dp58
g40
F0.0
sg41
F20.0
sbsg46
F442.0
sba(iutils.SerializableStateObservation
Observation
p59
(dp60
g35
I4
sg36
I0
sg37
(iutils.SerializableStateObservation
Vector2d
p61
(dp62
g40
F-1.0
sg41
F-1.0
sbsg42
I3
sg43
(iutils.SerializableStateObservation
Vector2d
p63
(dp64
g40
F0.0
sg41
F30.0
sbsg46
F962.0
sba(iutils.SerializableStateObservation
Observation
p65
(dp66
g35
I4
sg36
I0
sg37
(iutils.SerializableStateObservation
Vector2d
p67
(dp68
g40
F-1.0
sg41
F-1.0
sbsg42
I4
sg43
(iutils.SerializableStateObservation
Vector2d
p69
(dp70
g40
F0.0
sg41
F40.0
sbsg46
F1682.0
sba(iutils.SerializableStateObservation
Observation
p71
(dp72
g35
I4
sg36
I0
sg37
(iutils.SerializableStateObservation
Vector2d
p73
(dp74
g40
F-1.0
sg41
F-1.0
sbsg42
I5
sg43
(iutils.SerializableStateObservation
Vector2d
p75
(dp76
g40
F0.0
sg41
F50.0
sbsg46
F2602.0
sba(iutils.SerializableStateObservation
Observation
p77
(dp78
g35
I4
sg36
I0
sg37
(iutils.SerializableStateObservation
Vector2d
p79
(dp80
g40
F-1.0
sg41
F-1.0
sbsg42
I6
sg43
(iutils.SerializableStateObservation
Vector2d
p81
(dp82
g40
F0.0
sg41
F60.0
sbsg46
F3722.0
sba(iutils.SerializableStateObservation
Observation
p83
(dp84
g35
I4
sg36
I0
sg37
(iutils.SerializableStateObservation
Vector2d
p85
(dp86
g40
F-1.0
sg41
F-1.0
sbsg42
I7
sg43
(iutils.SerializableStateObservation
Vector2d
p87
(dp88
g40
F0.0
sg41
F70.0
sbsg46
F5042.0
sba(iutils.SerializableStateObservation
Observation
p89
(dp90
g35
I4
sg36
I0
sg37
(iutils.SerializableStateObservation
Vector2d
p91
(dp92
g40
F-1.0
sg41
F-1.0
sbsg42
I8
sg43
(iutils.SerializableStateObservation
Vector2d
p93
(dp94
g40
F0.0
sg41
F80.0
sbsg46
F6562.0
sba(iutils.SerializableStateObservation
Observation
p95
(dp96
g35
I4
sg36
I0
sg37
(iutils.SerializableStateObservation
Vector2d
p97
(dp98
g40
F-1.0
sg41
F-1.0
sbsg42
I9
sg43
(iutils.SerializableStateObservation
Vector2d
p99
(dp100
g40
F0.0
sg41
F90.0
sbsg46
F8282.0
sba(iutils.SerializableStateObservation
Observation
p101
(dp102
g35
I4
sg36
I0
sg37
(iutils.SerializableStateObservation
Vector2d
p103
(dp104
g40
F-1.0
sg41
F-1.0
sbsg42
I10
sg43
(iutils.SerializableStateObservation
Vector2d
p105
(dp106
g40
F0.0
sg41
F100.0
sbsg46
F10202.0
sba(iutils.SerializableStateObservation
Observation
p107
(dp108
g35
I4
sg36
I0
sg37
(iutils.SerializableStateObservation
Vector2d
p109
(dp110
g40
F-1.0
sg41
F-1.0
sbsg42
I11
sg43
(iutils.SerializableStateObservation
Vector2d
p111
(dp112
g40
F0.0
sg41
F110.0
sbsg46
F12322.0
sba(iutils.SerializableStateObservation
Observation
p113
(dp114
g35
I4
sg36
I0
sg37
(iutils.SerializableStateObservation
Vector2d
p115
(dp116
g40
F-1.0
sg41
F-1.0
sbsg42
I12
sg43
(iutils.SerializableStateObservation
Vector2d
p117
(dp118
g40
F0.0
sg41
F120.0
sbsg46
F14642.0
sba(iutils.SerializableStateObservation
Observation
p119
(dp120
g35
I4
sg36
I0
sg37
(iutils.SerializableStateObservation
Vector2d
p121
(dp122
g40
F-1.0
sg41
F-1.0
sbsg42
I13
sg43
(iutils.SerializableStateObservation
Vector2d
p123
(dp124
g40
F10.0
sg41
F0.0
sbsg46
F122.0
sba(iutils.SerializableStateObservation
Observation
p125
(dp126
g35
I4
sg36
I0
sg37
(iutils.SerializableStateObservation
Vector2d
p127
(dp128
g40
F-1.0
sg41
F-1.0
sbsg42
I26
sg43
(iutils.SerializableStateObservation
Vector2d
p129
(dp130
g40
F10.0
sg41
F120.0
sbsg46
F14762.0
sba(iutils.SerializableStateObservation
Observation
p131
(dp132
g35
I4
sg36
I0
sg37
(iutils.SerializableStateObservation
Vector2d
p133
(dp134
g40
F-1.0
sg41
F-1.0
sbsg42
I27
sg43
(iutils.SerializableStateObservation
Vector2d
p135
(dp136
g40
F20.0
sg41
F0.0
sbsg46
F442.0
sba(iutils.SerializableStateObservation
Observation
p137
(dp138
g35
I4
sg36
I0
sg37
(iutils.SerializableStateObservation
Vector2d
p139
(dp140
g40
F-1.0
sg41
F-1.0
sbsg42
I39
sg43
(iutils.SerializableStateObservation
Vector2d
p141
(dp142
g40
F20.0
sg41
F120.0
sbsg46
F15082.0
sba(iutils.SerializableStateObservation
Observation
p143
(dp144
g35
I4
sg36
I0
sg37
(iutils.SerializableStateObservation
Vector2d
p145
(dp146
g40
F-1.0
sg41
F-1.0
sbsg42
I40
sg43
(iutils.SerializableStateObservation
Vector2d
p147
(dp148
g40
F30.0
sg41
F0.0
sbsg46
F962.0
sba(iutils.SerializableStateObservation
Observation
p149
(dp150
g35
I4
sg36
I0
sg37
(iutils.SerializableStateObservation
Vector2d
p151
(dp152
g40
F-1.0
sg41
F-1.0
sbsg42
I52
sg43
(iutils.SerializableStateObservation
Vector2d
p153
(dp154
g40
F30.0
sg41
F120.0
sbsg46
F15602.0
sba(iutils.SerializableStateObservation
Observation
p155
(dp156
g35
I4
sg36
I0
sg37
(iutils.SerializableStateObservation
Vector2d
p157
(dp158
g40
F-1.0
sg41
F-1.0
sbsg42
I53
sg43
(iutils.SerializableStateObservation
Vector2d
p159
(dp160
g40
F40.0
sg41
F0.0
sbsg46
F1682.0
sba(iutils.SerializableStateObservation
Observation
p161
(dp162
g35
I4
sg36
I0
sg37
(iutils.SerializableStateObservation
Vector2d
p163
(dp164
g40
F-1.0
sg41
F-1.0
sbsg42
I54
sg43
(iutils.SerializableStateObservation
Vector2d
p165
(dp166
g40
F40.0
sg41
F10.0
sbsg46
F1802.0
sba(iutils.SerializableStateObservation
Observation
p167
(dp168
g35
I4
sg36
I0
sg37
(iutils.SerializableStateObservation
Vector2d
p169
(dp170
g40
F-1.0
sg41
F-1.0
sbsg42
I55
sg43
(iutils.SerializableStateObservation
Vector2d
p171
(dp172
g40
F40.0
sg41
F20.0
sbsg46
F2122.0
sba(iutils.SerializableStateObservation
Observation
p173
(dp174
g35
I4
sg36
I0
sg37
(iutils.SerializableStateObservation
Vector2d
p175
(dp176
g40
F-1.0
sg41
F-1.0
sbsg42
I57
sg43
(iutils.SerializableStateObservation
Vector2d
p177
(dp178
g40
F40.0
sg41
F40.0
sbsg46
F3362.0
sba(iutils.SerializableStateObservation
Observation
p179
(dp180
g35
I4
sg36
I0
sg37
(iutils.SerializableStateObservation
Vector2d
p181
(dp182
g40
F-1.0
sg41
F-1.0
sbsg42
I62
sg43
(iutils.SerializableStateObservation
Vector2d
p183
(dp184
g40
F40.0
sg41
F80.0
sbsg46
F8242.0
sba(iutils.SerializableStateObservation
Observation
p185
(dp186
g35
I4
sg36
I0
sg37
(iutils.SerializableStateObservation
Vector2d
p187
(dp188
g40
F-1.0
sg41
F-1.0
sbsg42
I63
sg43
(iutils.SerializableStateObservation
Vector2d
p189
(dp190
g40
F40.0
sg41
F90.0
sbsg46
F9962.0
sba(iutils.SerializableStateObservation
Observation
p191
(dp192
g35
I4
sg36
I0
sg37
(iutils.SerializableStateObservation
Vector2d
p193
(dp194
g40
F-1.0
sg41
F-1.0
sbsg42
I64
sg43
(iutils.SerializableStateObservation
Vector2d
p195
(dp196
g40
F40.0
sg41
F100.0
sbsg46
F11882.0
sba(iutils.SerializableStateObservation
Observation
p197
(dp198
g35
I4
sg36
I0
sg37
(iutils.SerializableStateObservation
Vector2d
p199
(dp200
g40
F-1.0
sg41
F-1.0
sbsg42
I65
sg43
(iutils.SerializableStateObservation
Vector2d
p201
(dp202
g40
F40.0
sg41
F110.0
sbsg46
F14002.0
sba(iutils.SerializableStateObservation
Observation
p203
(dp204
g35
I4
sg36
I0
sg37
(iutils.SerializableStateObservation
Vector2d
p205
(dp206
g40
F-1.0
sg41
F-1.0
sbsg42
I66
sg43
(iutils.SerializableStateObservation
Vector2d
p207
(dp208
g40
F40.0
sg41
F120.0
sbsg46
F16322.0
sba(iutils.SerializableStateObservation
Observation
p209
(dp210
g35
I4
sg36
I0
sg37
(iutils.SerializableStateObservation
Vector2d
p211
(dp212
g40
F-1.0
sg41
F-1.0
sbsg42
I67
sg43
(iutils.SerializableStateObservation
Vector2d
p213
(dp214
g40
F50.0
sg41
F0.0
sbsg46
F2602.0
sba(iutils.SerializableStateObservation
Observation
p215
(dp216
g35
I4
sg36
I0
sg37
(iutils.SerializableStateObservation
Vector2d
p217
(dp218
g40
F-1.0
sg41
F-1.0
sbsg42
I75
sg43
(iutils.SerializableStateObservation
Vector2d
p219
(dp220
g40
F50.0
sg41
F80.0
sbsg46
F9162.0
sba(iutils.SerializableStateObservation
Observation
p221
(dp222
g35
I4
sg36
I0
sg37
(iutils.SerializableStateObservation
Vector2d
p223
(dp224
g40
F-1.0
sg41
F-1.0
sbsg42
I80
sg43
(iutils.SerializableStateObservation
Vector2d
p225
(dp226
g40
F50.0
sg41
F120.0
sbsg46
F17242.0
sba(iutils.SerializableStateObservation
Observation
p227
(dp228
g35
I4
sg36
I0
sg37
(iutils.SerializableStateObservation
Vector2d
p229
(dp230
g40
F-1.0
sg41
F-1.0
sbsg42
I81
sg43
(iutils.SerializableStateObservation
Vector2d
p231
(dp232
g40
F60.0
sg41
F0.0
sbsg46
F3722.0
sba(iutils.SerializableStateObservation
Observation
p233
(dp234
g35
I4
sg36
I0
sg37
(iutils.SerializableStateObservation
Vector2d
p235
(dp236
g40
F-1.0
sg41
F-1.0
sbsg42
I94
sg43
(iutils.SerializableStateObservation
Vector2d
p237
(dp238
g40
F60.0
sg41
F120.0
sbsg46
F18362.0
sba(iutils.SerializableStateObservation
Observation
p239
(dp240
g35
I4
sg36
I0
sg37
(iutils.SerializableStateObservation
Vector2d
p241
(dp242
g40
F-1.0
sg41
F-1.0
sbsg42
I95
sg43
(iutils.SerializableStateObservation
Vector2d
p243
(dp244
g40
F70.0
sg41
F0.0
sbsg46
F5042.0
sba(iutils.SerializableStateObservation
Observation
p245
(dp246
g35
I4
sg36
I0
sg37
(iutils.SerializableStateObservation
Vector2d
p247
(dp248
g40
F-1.0
sg41
F-1.0
sbsg42
I108
sg43
(iutils.SerializableStateObservation
Vector2d
p249
(dp250
g40
F70.0
sg41
F120.0
sbsg46
F19682.0
sba(iutils.SerializableStateObservation
Observation
p251
(dp252
g35
I4
sg36
I0
sg37
(iutils.SerializableStateObservation
Vector2d
p253
(dp254
g40
F-1.0
sg41
F-1.0
sbsg42
I109
sg43
(iutils.SerializableStateObservation
Vector2d
p255
(dp256
g40
F80.0
sg41
F0.0
sbsg46
F6562.0
sba(iutils.SerializableStateObservation
Observation
p257
(dp258
g35
I4
sg36
I0
sg37
(iutils.SerializableStateObservation
Vector2d
p259
(dp260
g40
F-1.0
sg41
F-1.0
sbsg42
I110
sg43
(iutils.SerializableStateObservation
Vector2d
p261
(dp262
g40
F80.0
sg41
F10.0
sbsg46
F6682.0
sba(iutils.SerializableStateObservation
Observation
p263
(dp264
g35
I4
sg36
I0
sg37
(iutils.SerializableStateObservation
Vector2d
p265
(dp266
g40
F-1.0
sg41
F-1.0
sbsg42
I111
sg43
(iutils.SerializableStateObservation
Vector2d
p267
(dp268
g40
F80.0
sg41
F20.0
sbsg46
F7002.0
sba(iutils.SerializableStateObservation
Observation
p269
(dp270
g35
I4
sg36
I0
sg37
(iutils.SerializableStateObservation
Vector2d
p271
(dp272
g40
F-1.0
sg41
F-1.0
sbsg42
I112
sg43
(iutils.SerializableStateObservation
Vector2d
p273
(dp274
g40
F80.0
sg41
F30.0
sbsg46
F7522.0
sba(iutils.SerializableStateObservation
Observation
p275
(dp276
g35
I4
sg36
I0
sg37
(iutils.SerializableStateObservation
Vector2d
p277
(dp278
g40
F-1.0
sg41
F-1.0
sbsg42
I113
sg43
(iutils.SerializableStateObservation
Vector2d
p279
(dp280
g40
F80.0
sg41
F40.0
sbsg46
F8242.0
sba(iutils.SerializableStateObservation
Observation
p281
(dp282
g35
I4
sg36
I0
sg37
(iutils.SerializableStateObservation
Vector2d
p283
(dp284
g40
F-1.0
sg41
F-1.0
sbsg42
I114
sg43
(iutils.SerializableStateObservation
Vector2d
p285
(dp286
g40
F80.0
sg41
F50.0
sbsg46
F9162.0
sba(iutils.SerializableStateObservation
Observation
p287
(dp288
g35
I4
sg36
I0
sg37
(iutils.SerializableStateObservation
Vector2d
p289
(dp290
g40
F-1.0
sg41
F-1.0
sbsg42
I115
sg43
(iutils.SerializableStateObservation
Vector2d
p291
(dp292
g40
F80.0
sg41
F60.0
sbsg46
F10282.0
sba(iutils.SerializableStateObservation
Observation
p293
(dp294
g35
I4
sg36
I0
sg37
(iutils.SerializableStateObservation
Vector2d
p295
(dp296
g40
F-1.0
sg41
F-1.0
sbsg42
I116
sg43
(iutils.SerializableStateObservation
Vector2d
p297
(dp298
g40
F80.0
sg41
F70.0
sbsg46
F11602.0
sba(iutils.SerializableStateObservation
Observation
p299
(dp300
g35
I4
sg36
I0
sg37
(iutils.SerializableStateObservation
Vector2d
p301
(dp302
g40
F-1.0
sg41
F-1.0
sbsg42
I117
sg43
(iutils.SerializableStateObservation
Vector2d
p303
(dp304
g40
F80.0
sg41
F80.0
sbsg46
F13122.0
sba(iutils.SerializableStateObservation
Observation
p305
(dp306
g35
I4
sg36
I0
sg37
(iutils.SerializableStateObservation
Vector2d
p307
(dp308
g40
F-1.0
sg41
F-1.0
sbsg42
I118
sg43
(iutils.SerializableStateObservation
Vector2d
p309
(dp310
g40
F80.0
sg41
F90.0
sbsg46
F14842.0
sba(iutils.SerializableStateObservation
Observation
p311
(dp312
g35
I4
sg36
I0
sg37
(iutils.SerializableStateObservation
Vector2d
p313
(dp314
g40
F-1.0
sg41
F-1.0
sbsg42
I119
sg43
(iutils.SerializableStateObservation
Vector2d
p315
(dp316
g40
F80.0
sg41
F100.0
sbsg46
F16762.0
sba(iutils.SerializableStateObservation
Observation
p317
(dp318
g35
I4
sg36
I0
sg37
(iutils.SerializableStateObservation
Vector2d
p319
(dp320
g40
F-1.0
sg41
F-1.0
sbsg42
I120
sg43
(iutils.SerializableStateObservation
Vector2d
p321
(dp322
g40
F80.0
sg41
F110.0
sbsg46
F18882.0
sba(iutils.SerializableStateObservation
Observation
p323
(dp324
g35
I4
sg36
I0
sg37
(iutils.SerializableStateObservation
Vector2d
p325
(dp326
g40
F-1.0
sg41
F-1.0
sbsg42
I121
sg43
(iutils.SerializableStateObservation
Vector2d
p327
(dp328
g40
F80.0
sg41
F120.0
sbsg46
F21202.0
sbaa(lp329
(iutils.SerializableStateObservation
Observation
p330
(dp331
g35
I4
sg36
I11
sg37
(iutils.SerializableStateObservation
Vector2d
p332
(dp333
g40
F-1.0
sg41
F-1.0
sbsg42
I59
sg43
(iutils.SerializableStateObservation
Vector2d
p334
(dp335
g40
F40.0
sg41
F50.0
sbsg46
F4282.0
sba(iutils.SerializableStateObservation
Observation
p336
(dp337
g35
I4
sg36
I11
sg37
(iutils.SerializableStateObservation
Vector2d
p338
(dp339
g40
F-1.0
sg41
F-1.0
sbsg42
I84
sg43
(iutils.SerializableStateObservation
Vector2d
p340
(dp341
g40
F60.0
sg41
F20.0
sbsg46
F4162.0
sba(iutils.SerializableStateObservation
Observation
p342
(dp343
g35
I4
sg36
I11
sg37
(iutils.SerializableStateObservation
Vector2d
p344
(dp345
g40
F-1.0
sg41
F-1.0
sbsg42
I102
sg43
(iutils.SerializableStateObservation
Vector2d
p346
(dp347
g40
F70.0
sg41
F60.0
sbsg46
F8762.0
sbaNaNaNaNaNaNaNaNaNaNaNaNaNaNaNaNaNaNaNaNaNaNaNaNaNaNaNaNaNaNaNaNaNaNaNaNaNaNaNaNaNaNaNaNaNaasS'winner'
p348
(iutils.Types
WINNER
p349
(dp350
bsS'NPCPositionsMaxRow'
p351
I0
sS'avatarHealthPoints'
p352
I0
sS'fromAvatarSpritesPositions'
p353
(lp354
sS'imageArray'
p355
c__builtin__
bytearray
p356
(V
p357
S'latin-1'
p358
tp359
Rp360
sS'noOfPlayers'
p361
I1
sS'gameTick'
p362
I0
sVmovablePositionsNum
p363
I0
sVresourcesPositionsMaxRow
p364
I0
sS'isAvatarAlive'
p365
I01
sS'avatarType'
p366
I8
sS'avatarSpeed'
p367
F1.0
sS'phase'
p368
I2
sS'NPCPositions'
p369
(lp370
sS'NPCPositionsNum'
p371
I0
sS'portalsPositions'
p372
(lp373
(lp374
(iutils.SerializableStateObservation
Observation
p375
(dp376
g35
I2
sg36
I3
sg37
(iutils.SerializableStateObservation
Vector2d
p377
(dp378
g40
F-1.0
sg41
F-1.0
sbsg42
I78
sg43
(iutils.SerializableStateObservation
Vector2d
p379
(dp380
g40
F50.0
sg41
F100.0
sbsg46
F12802.0
sbaasS'gameScore'
p381
F0.0
sVobservationGridMaxRow
p382
I9
sVresourcesPositionsNum
p383
I0
sS'gameWinner'
p384
VNO_WINNER
p385
sVmovablePositionsMaxRow
p386
I0
sS'immovablePositionsNum'
p387
I2
sVportalsPositionsMaxRow
p388
I1
sS'avatarOrientation'
p389
(lp390
F1.0
aF0.0
asS'avatarMaxHealthPoints'
p391
I0
sS'observationGrid'
p392
(lp393
(lp394
(lp395
(iutils.SerializableStateObservation
Observation
p396
(dp397
g35
I4
sg36
I0
sg37
(iutils.SerializableStateObservation
Vector2d
p398
(dp399
g40
F-1.0
sg41
F-1.0
sbsg42
I0
sg43
(iutils.SerializableStateObservation
Vector2d
p400
(dp401
g40
F0.0
sg41
F0.0
sbsg46
F2.0
sbaa(lp402
(iutils.SerializableStateObservation
Observation
p403
(dp404
g35
I4
sg36
I0
sg37
(iutils.SerializableStateObservation
Vector2d
p405
(dp406
g40
F-1.0
sg41
F-1.0
sbsg42
I13
sg43
(iutils.SerializableStateObservation
Vector2d
p407
(dp408
g40
F10.0
sg41
F0.0
sbsg46
F122.0
sbaa(lp409
(iutils.SerializableStateObservation
Observation
p410
(dp411
g35
I4
sg36
I0
sg37
(iutils.SerializableStateObservation
Vector2d
p412
(dp413
g40
F-1.0
sg41
F-1.0
sbsg42
I27
sg43
(iutils.SerializableStateObservation
Vector2d
p414
(dp415
g40
F20.0
sg41
F0.0
sbsg46
F442.0
sbaa(lp416
(iutils.SerializableStateObservation
Observation
p417
(dp418
g35
I4
sg36
I0
sg37
(iutils.SerializableStateObservation
Vector2d
p419
(dp420
g40
F-1.0
sg41
F-1.0
sbsg42
I40
sg43
(iutils.SerializableStateObservation
Vector2d
p421
(dp422
g40
F30.0
sg41
F0.0
sbsg46
F962.0
sbaa(lp423
(iutils.SerializableStateObservation
Observation
p424
(dp425
g35
I4
sg36
I0
sg37
(iutils.SerializableStateObservation
Vector2d
p426
(dp427
g40
F-1.0
sg41
F-1.0
sbsg42
I53
sg43
(iutils.SerializableStateObservation
Vector2d
p428
(dp429
g40
F40.0
sg41
F0.0
sbsg46
F1682.0
sbaa(lp430
(iutils.SerializableStateObservation
Observation
p431
(dp432
g35
I4
sg36
I0
sg37
(iutils.SerializableStateObservation
Vector2d
p433
(dp434
g40
F-1.0
sg41
F-1.0
sbsg42
I67
sg43
(iutils.SerializableStateObservation
Vector2d
p435
(dp436
g40
F50.0
sg41
F0.0
sbsg46
F2602.0
sbaa(lp437
(iutils.SerializableStateObservation
Observation
p438
(dp439
g35
I4
sg36
I0
sg37
(iutils.SerializableStateObservation
Vector2d
p440
(dp441
g40
F-1.0
sg41
F-1.0
sbsg42
I81
sg43
(iutils.SerializableStateObservation
Vector2d
p442
(dp443
g40
F60.0
sg41
F0.0
sbsg46
F3722.0
sbaa(lp444
(iutils.SerializableStateObservation
Observation
p445
(dp446
g35
I4
sg36
I0
sg37
(iutils.SerializableStateObservation
Vector2d
p447
(dp448
g40
F-1.0
sg41
F-1.0
sbsg42
I95
sg43
(iutils.SerializableStateObservation
Vector2d
p449
(dp450
g40
F70.0
sg41
F0.0
sbsg46
F5042.0
sbaa(lp451
(iutils.SerializableStateObservation
Observation
p452
(dp453
g35
I4
sg36
I0
sg37
(iutils.SerializableStateObservation
Vector2d
p454
(dp455
g40
F-1.0
sg41
F-1.0
sbsg42
I109
sg43
(iutils.SerializableStateObservation
Vector2d
p456
(dp457
g40
F80.0
sg41
F0.0
sbsg46
F6562.0
sbaaa(lp458
(lp459
(iutils.SerializableStateObservation
Observation
p460
(dp461
g35
I4
sg36
I0
sg37
(iutils.SerializableStateObservation
Vector2d
p462
(dp463
g40
F-1.0
sg41
F-1.0
sbsg42
I1
sg43
(iutils.SerializableStateObservation
Vector2d
p464
(dp465
g40
F0.0
sg41
F10.0
sbsg46
F122.0
sbaa(lp466
(iutils.SerializableStateObservation
Observation
p467
(dp468
g35
I0
sg36
I8
sg37
(iutils.SerializableStateObservation
Vector2d
p469
(dp470
g40
F-1.0
sg41
F-1.0
sbsg42
I15
sg43
(iutils.SerializableStateObservation
Vector2d
p471
(dp472
g40
F10.0
sg41
F10.0
sbsg46
F242.0
sbaa(lp473
Naa(lp474
Naa(lp475
(iutils.SerializableStateObservation
Observation
p476
(dp477
g35
I4
sg36
I0
sg37
(iutils.SerializableStateObservation
Vector2d
p478
(dp479
g40
F-1.0
sg41
F-1.0
sbsg42
I54
sg43
(iutils.SerializableStateObservation
Vector2d
p480
(dp481
g40
F40.0
sg41
F10.0
sbsg46
F1802.0
sbaa(lp482
Naa(lp483
Naa(lp484
Naa(lp485
(iutils.SerializableStateObservation
Observation
p486
(dp487
g35
I4
sg36
I0
sg37
(iutils.SerializableStateObservation
Vector2d
p488
(dp489
g40
F-1.0
sg41
F-1.0
sbsg42
I110
sg43
(iutils.SerializableStateObservation
Vector2d
p490
(dp491
g40
F80.0
sg41
F10.0
sbsg46
F6682.0
sbaaa(lp492
(lp493
(iutils.SerializableStateObservation
Observation
p494
(dp495
g35
I4
sg36
I0
sg37
(iutils.SerializableStateObservation
Vector2d
p496
(dp497
g40
F-1.0
sg41
F-1.0
sbsg42
I2
sg43
(iutils.SerializableStateObservation
Vector2d
p498
(dp499
g40
F0.0
sg41
F20.0
sbsg46
F442.0
sbaa(lp500
Naa(lp501
Naa(lp502
Naa(lp503
(iutils.SerializableStateObservation
Observation
p504
(dp505
g35
I4
sg36
I0
sg37
(iutils.SerializableStateObservation
Vector2d
p506
(dp507
g40
F-1.0
sg41
F-1.0
sbsg42
I55
sg43
(iutils.SerializableStateObservation
Vector2d
p508
(dp509
g40
F40.0
sg41
F20.0
sbsg46
F2122.0
sbaa(lp510
Naa(lp511
(iutils.SerializableStateObservation
Observation
p512
(dp513
g35
I4
sg36
I11
sg37
(iutils.SerializableStateObservation
Vector2d
p514
(dp515
g40
F-1.0
sg41
F-1.0
sbsg42
I84
sg43
(iutils.SerializableStateObservation
Vector2d
p516
(dp517
g40
F60.0
sg41
F20.0
sbsg46
F4162.0
sbaa(lp518
Naa(lp519
(iutils.SerializableStateObservation
Observation
p520
(dp521
g35
I4
sg36
I0
sg37
(iutils.SerializableStateObservation
Vector2d
p522
(dp523
g40
F-1.0
sg41
F-1.0
sbsg42
I111
sg43
(iutils.SerializableStateObservation
Vector2d
p524
(dp525
g40
F80.0
sg41
F20.0
sbsg46
F7002.0
sbaaa(lp526
(lp527
(iutils.SerializableStateObservation
Observation
p528
(dp529
g35
I4
sg36
I0
sg37
(iutils.SerializableStateObservation
Vector2d
p530
(dp531
g40
F-1.0
sg41
F-1.0
sbsg42
I3
sg43
(iutils.SerializableStateObservation
Vector2d
p532
(dp533
g40
F0.0
sg41
F30.0
sbsg46
F962.0
sbaa(lp534
Naa(lp535
Naa(lp536
Naa(lp537
Naa(lp538
Naa(lp539
Naa(lp540
Naa(lp541
(iutils.SerializableStateObservation
Observation
p542
(dp543
g35
I4
sg36
I0
sg37
(iutils.SerializableStateObservation
Vector2d
p544
(dp545
g40
F-1.0
sg41
F-1.0
sbsg42
I112
sg43
(iutils.SerializableStateObservation
Vector2d
p546
(dp547
g40
F80.0
sg41
F30.0
sbsg46
F7522.0
sbaaa(lp548
(lp549
(iutils.SerializableStateObservation
Observation
p550
(dp551
g35
I4
sg36
I0
sg37
(iutils.SerializableStateObservation
Vector2d
p552
(dp553
g40
F-1.0
sg41
F-1.0
sbsg42
I4
sg43
(iutils.SerializableStateObservation
Vector2d
p554
(dp555
g40
F0.0
sg41
F40.0
sbsg46
F1682.0
sbaa(lp556
Naa(lp557
Naa(lp558
Naa(lp559
(iutils.SerializableStateObservation
Observation
p560
(dp561
g35
I4
sg36
I0
sg37
(iutils.SerializableStateObservation
Vector2d
p562
(dp563
g40
F-1.0
sg41
F-1.0
sbsg42
I57
sg43
(iutils.SerializableStateObservation
Vector2d
p564
(dp565
g40
F40.0
sg41
F40.0
sbsg46
F3362.0
sbaa(lp566
Naa(lp567
Naa(lp568
Naa(lp569
(iutils.SerializableStateObservation
Observation
p570
(dp571
g35
I4
sg36
I0
sg37
(iutils.SerializableStateObservation
Vector2d
p572
(dp573
g40
F-1.0
sg41
F-1.0
sbsg42
I113
sg43
(iutils.SerializableStateObservation
Vector2d
p574
(dp575
g40
F80.0
sg41
F40.0
sbsg46
F8242.0
sbaaa(lp576
(lp577
(iutils.SerializableStateObservation
Observation
p578
(dp579
g35
I4
sg36
I0
sg37
(iutils.SerializableStateObservation
Vector2d
p580
(dp581
g40
F-1.0
sg41
F-1.0
sbsg42
I5
sg43
(iutils.SerializableStateObservation
Vector2d
p582
(dp583
g40
F0.0
sg41
F50.0
sbsg46
F2602.0
sbaa(lp584
Naa(lp585
Naa(lp586
Naa(lp587
(iutils.SerializableStateObservation
Observation
p588
(dp589
g35
I4
sg36
I11
sg37
(iutils.SerializableStateObservation
Vector2d
p590
(dp591
g40
F-1.0
sg41
F-1.0
sbsg42
I59
sg43
(iutils.SerializableStateObservation
Vector2d
p592
(dp593
g40
F40.0
sg41
F50.0
sbsg46
F4282.0
sbaa(lp594
Naa(lp595
Naa(lp596
Naa(lp597
(iutils.SerializableStateObservation
Observation
p598
(dp599
g35
I4
sg36
I0
sg37
(iutils.SerializableStateObservation
Vector2d
p600
(dp601
g40
F-1.0
sg41
F-1.0
sbsg42
I114
sg43
(iutils.SerializableStateObservation
Vector2d
p602
(dp603
g40
F80.0
sg41
F50.0
sbsg46
F9162.0
sbaaa(lp604
(lp605
(iutils.SerializableStateObservation
Observation
p606
(dp607
g35
I4
sg36
I0
sg37
(iutils.SerializableStateObservation
Vector2d
p608
(dp609
g40
F-1.0
sg41
F-1.0
sbsg42
I6
sg43
(iutils.SerializableStateObservation
Vector2d
p610
(dp611
g40
F0.0
sg41
F60.0
sbsg46
F3722.0
sbaa(lp612
Naa(lp613
Naa(lp614
Naa(lp615
Naa(lp616
Naa(lp617
Naa(lp618
(iutils.SerializableStateObservation
Observation
p619
(dp620
g35
I4
sg36
I11
sg37
(iutils.SerializableStateObservation
Vector2d
p621
(dp622
g40
F-1.0
sg41
F-1.0
sbsg42
I102
sg43
(iutils.SerializableStateObservation
Vector2d
p623
(dp624
g40
F70.0
sg41
F60.0
sbsg46
F8762.0
sbaa(lp625
(iutils.SerializableStateObservation
Observation
p626
(dp627
g35
I4
sg36
I0
sg37
(iutils.SerializableStateObservation
Vector2d
p628
(dp629
g40
F-1.0
sg41
F-1.0
sbsg42
I115
sg43
(iutils.SerializableStateObservation
Vector2d
p630
(dp631
g40
F80.0
sg41
F60.0
sbsg46
F10282.0
sbaaa(lp632
(lp633
(iutils.SerializableStateObservation
Observation
p634
(dp635
g35
I4
sg36
I0
sg37
(iutils.SerializableStateObservation
Vector2d
p636
(dp637
g40
F-1.0
sg41
F-1.0
sbsg42
I7
sg43
(iutils.SerializableStateObservation
Vector2d
p638
(dp639
g40
F0.0
sg41
F70.0
sbsg46
F5042.0
sbaa(lp640
Naa(lp641
Naa(lp642
Naa(lp643
Naa(lp644
Naa(lp645
Naa(lp646
Naa(lp647
(iutils.SerializableStateObservation
Observation
p648
(dp649
g35
I4
sg36
I0
sg37
(iutils.SerializableStateObservation
Vector2d
p650
(dp651
g40
F-1.0
sg41
F-1.0
sbsg42
I116
sg43
(iutils.SerializableStateObservation
Vector2d
p652
(dp653
g40
F80.0
sg41
F70.0
sbsg46
F11602.0
sbaaa(lp654
(lp655
(iutils.SerializableStateObservation
Observation
p656
(dp657
g35
I4
sg36
I0
sg37
(iutils.SerializableStateObservation
Vector2d
p658
(dp659
g40
F-1.0
sg41
F-1.0
sbsg42
I8
sg43
(iutils.SerializableStateObservation
Vector2d
p660
(dp661
g40
F0.0
sg41
F80.0
sbsg46
F6562.0
sbaa(lp662
Naa(lp663
Naa(lp664
Naa(lp665
(iutils.SerializableStateObservation
Observation
p666
(dp667
g35
I4
sg36
I0
sg37
(iutils.SerializableStateObservation
Vector2d
p668
(dp669
g40
F-1.0
sg41
F-1.0
sbsg42
I62
sg43
(iutils.SerializableStateObservation
Vector2d
p670
(dp671
g40
F40.0
sg41
F80.0
sbsg46
F8242.0
sbaa(lp672
(iutils.SerializableStateObservation
Observation
p673
(dp674
g35
I4
sg36
I0
sg37
(iutils.SerializableStateObservation
Vector2d
p675
(dp676
g40
F-1.0
sg41
F-1.0
sbsg42
I75
sg43
(iutils.SerializableStateObservation
Vector2d
p677
(dp678
g40
F50.0
sg41
F80.0
sbsg46
F9162.0
sbaa(lp679
Naa(lp680
Naa(lp681
(iutils.SerializableStateObservation
Observation
p682
(dp683
g35
I4
sg36
I0
sg37
(iutils.SerializableStateObservation
Vector2d
p684
(dp685
g40
F-1.0
sg41
F-1.0
sbsg42
I117
sg43
(iutils.SerializableStateObservation
Vector2d
p686
(dp687
g40
F80.0
sg41
F80.0
sbsg46
F13122.0
sbaaa(lp688
(lp689
(iutils.SerializableStateObservation
Observation
p690
(dp691
g35
I4
sg36
I0
sg37
(iutils.SerializableStateObservation
Vector2d
p692
(dp693
g40
F-1.0
sg41
F-1.0
sbsg42
I9
sg43
(iutils.SerializableStateObservation
Vector2d
p694
(dp695
g40
F0.0
sg41
F90.0
sbsg46
F8282.0
sbaa(lp696
Naa(lp697
Naa(lp698
Naa(lp699
(iutils.SerializableStateObservation
Observation
p700
(dp701
g35
I4
sg36
I0
sg37
(iutils.SerializableStateObservation
Vector2d
p702
(dp703
g40
F-1.0
sg41
F-1.0
sbsg42
I63
sg43
(iutils.SerializableStateObservation
Vector2d
p704
(dp705
g40
F40.0
sg41
F90.0
sbsg46
F9962.0
sbaa(lp706
Naa(lp707
Naa(lp708
Naa(lp709
(iutils.SerializableStateObservation
Observation
p710
(dp711
g35
I4
sg36
I0
sg37
(iutils.SerializableStateObservation
Vector2d
p712
(dp713
g40
F-1.0
sg41
F-1.0
sbsg42
I118
sg43
(iutils.SerializableStateObservation
Vector2d
p714
(dp715
g40
F80.0
sg41
F90.0
sbsg46
F14842.0
sbaaa(lp716
(lp717
(iutils.SerializableStateObservation
Observation
p718
(dp719
g35
I4
sg36
I0
sg37
(iutils.SerializableStateObservation
Vector2d
p720
(dp721
g40
F-1.0
sg41
F-1.0
sbsg42
I10
sg43
(iutils.SerializableStateObservation
Vector2d
p722
(dp723
g40
F0.0
sg41
F100.0
sbsg46
F10202.0
sbaa(lp724
Naa(lp725
Naa(lp726
Naa(lp727
(iutils.SerializableStateObservation
Observation
p728
(dp729
g35
I4
sg36
I0
sg37
(iutils.SerializableStateObservation
Vector2d
p730
(dp731
g40
F-1.0
sg41
F-1.0
sbsg42
I64
sg43
(iutils.SerializableStateObservation
Vector2d
p732
(dp733
g40
F40.0
sg41
F100.0
sbsg46
F11882.0
sbaa(lp734
(iutils.SerializableStateObservation
Observation
p735
(dp736
g35
I2
sg36
I3
sg37
(iutils.SerializableStateObservation
Vector2d
p737
(dp738
g40
F-1.0
sg41
F-1.0
sbsg42
I78
sg43
(iutils.SerializableStateObservation
Vector2d
p739
(dp740
g40
F50.0
sg41
F100.0
sbsg46
F12802.0
sbaa(lp741
Naa(lp742
Naa(lp743
(iutils.SerializableStateObservation
Observation
p744
(dp745
g35
I4
sg36
I0
sg37
(iutils.SerializableStateObservation
Vector2d
p746
(dp747
g40
F-1.0
sg41
F-1.0
sbsg42
I119
sg43
(iutils.SerializableStateObservation
Vector2d
p748
(dp749
g40
F80.0
sg41
F100.0
sbsg46
F16762.0
sbaaa(lp750
(lp751
(iutils.SerializableStateObservation
Observation
p752
(dp753
g35
I4
sg36
I0
sg37
(iutils.SerializableStateObservation
Vector2d
p754
(dp755
g40
F-1.0
sg41
F-1.0
sbsg42
I11
sg43
(iutils.SerializableStateObservation
Vector2d
p756
(dp757
g40
F0.0
sg41
F110.0
sbsg46
F12322.0
sbaa(lp758
Naa(lp759
Naa(lp760
Naa(lp761
(iutils.SerializableStateObservation
Observation
p762
(dp763
g35
I4
sg36
I0
sg37
(iutils.SerializableStateObservation
Vector2d
p764
(dp765
g40
F-1.0
sg41
F-1.0
sbsg42
I65
sg43
(iutils.SerializableStateObservation
Vector2d
p766
(dp767
g40
F40.0
sg41
F110.0
sbsg46
F14002.0
sbaa(lp768
Naa(lp769
Naa(lp770
Naa(lp771
(iutils.SerializableStateObservation
Observation
p772
(dp773
g35
I4
sg36
I0
sg37
(iutils.SerializableStateObservation
Vector2d
p774
(dp775
g40
F-1.0
sg41
F-1.0
sbsg42
I120
sg43
(iutils.SerializableStateObservation
Vector2d
p776
(dp777
g40
F80.0
sg41
F110.0
sbsg46
F18882.0
sbaaa(lp778
(lp779
(iutils.SerializableStateObservation
Observation
p780
(dp781
g35
I4
sg36
I0
sg37
(iutils.SerializableStateObservation
Vector2d
p782
(dp783
g40
F-1.0
sg41
F-1.0
sbsg42
I12
sg43
(iutils.SerializableStateObservation
Vector2d
p784
(dp785
g40
F0.0
sg41
F120.0
sbsg46
F14642.0
sbaa(lp786
(iutils.SerializableStateObservation
Observation
p787
(dp788
g35
I4
sg36
I0
sg37
(iutils.SerializableStateObservation
Vector2d
p789
(dp790
g40
F-1.0
sg41
F-1.0
sbsg42
I26
sg43
(iutils.SerializableStateObservation
Vector2d
p791
(dp792
g40
F10.0
sg41
F120.0
sbsg46
F14762.0
sbaa(lp793
(iutils.SerializableStateObservation
Observation
p794
(dp795
g35
I4
sg36
I0
sg37
(iutils.SerializableStateObservation
Vector2d
p796
(dp797
g40
F-1.0
sg41
F-1.0
sbsg42
I39
sg43
(iutils.SerializableStateObservation
Vector2d
p798
(dp799
g40
F20.0
sg41
F120.0
sbsg46
F15082.0
sbaa(lp800
(iutils.SerializableStateObservation
Observation
p801
(dp802
g35
I4
sg36
I0
sg37
(iutils.SerializableStateObservation
Vector2d
p803
(dp804
g40
F-1.0
sg41
F-1.0
sbsg42
I52
sg43
(iutils.SerializableStateObservation
Vector2d
p805
(dp806
g40
F30.0
sg41
F120.0
sbsg46
F15602.0
sbaa(lp807
(iutils.SerializableStateObservation
Observation
p808
(dp809
g35
I4
sg36
I0
sg37
(iutils.SerializableStateObservation
Vector2d
p810
(dp811
g40
F-1.0
sg41
F-1.0
sbsg42
I66
sg43
(iutils.SerializableStateObservation
Vector2d
p812
(dp813
g40
F40.0
sg41
F120.0
sbsg46
F16322.0
sbaa(lp814
(iutils.SerializableStateObservation
Observation
p815
(dp816
g35
I4
sg36
I0
sg37
(iutils.SerializableStateObservation
Vector2d
p817
(dp818
g40
F-1.0
sg41
F-1.0
sbsg42
I80
sg43
(iutils.SerializableStateObservation
Vector2d
p819
(dp820
g40
F50.0
sg41
F120.0
sbsg46
F17242.0
sbaa(lp821
(iutils.SerializableStateObservation
Observation
p822
(dp823
g35
I4
sg36
I0
sg37
(iutils.SerializableStateObservation
Vector2d
p824
(dp825
g40
F-1.0
sg41
F-1.0
sbsg42
I94
sg43
(iutils.SerializableStateObservation
Vector2d
p826
(dp827
g40
F60.0
sg41
F120.0
sbsg46
F18362.0
sbaa(lp828
(iutils.SerializableStateObservation
Observation
p829
(dp830
g35
I4
sg36
I0
sg37
(iutils.SerializableStateObservation
Vector2d
p831
(dp832
g40
F-1.0
sg41
F-1.0
sbsg42
I108
sg43
(iutils.SerializableStateObservation
Vector2d
p833
(dp834
g40
F70.0
sg41
F120.0
sbsg46
F19682.0
sbaa(lp835
(iutils.SerializableStateObservation
Observation
p836
(dp837
g35
I4
sg36
I0
sg37
(iutils.SerializableStateObservation
Vector2d
p838
(dp839
g40
F-1.0
sg41
F-1.0
sbsg42
I121
sg43
(iutils.SerializableStateObservation
Vector2d
p840
(dp841
g40
F80.0
sg41
F120.0
sbsg46
F21202.0
sbaaasVfromAvatarSpritesPositionsNum
p842
I0
sVobservationGridNum
p843
I13
sVportalsPositionsNum
p844
I1
sVfromAvatarSpritesPositionsMaxRow
p845
I0
sb.